(dp1
S'output'
p2
S'missing "pass" in view'
p3
sS'layer'
p4
S'ParserContainer'
p5
sS'code'
p6
S'response.write(\'<html>\\n  <head>\\n    <meta charset="utf-8">\\n    <meta http-equiv="X-UA-Compatible" content="IE=edge,chrome=1">\\n    <meta name="viewport" content="width=device-width, initial-scale=1.0" />\\n    <meta name="apple-mobile-web-app-capable" content="yes" />\\n    <meta name="viewport" content="width=device-width, initial-scale=1">\\n    <link rel="stylesheet" href="https://www.w3schools.com/w3css/4/w3.css">\\n    <link href="\', escape=False)\nresponse.write(URL(\'static\',\'css/stupid.css\'))\nresponse.write(\'" rel="stylesheet" type="text/css"/>\\n    <link href="\', escape=False)\nresponse.write(URL(\'static\',\'css/custom.css\'))\nresponse.write(\'" rel="stylesheet" type="text/css"/>\\n    <link href="\', escape=False)\nresponse.write(URL(\'static\',\'css/calendar.css\'))\nresponse.write(\'" rel="stylesheet" type="text/css"/>\\n    <link href="\', escape=False)\nresponse.write(URL(\'static\',\'css/web2py.css\'))\nresponse.write(\'" rel="stylesheet" type="text/css"/>\\n    <link href="\', escape=False)\nresponse.write(URL(\'static\',\'css/myapp.css\'))\nresponse.write(\'" rel="stylesheet" type="text/css"/>\\n    <link rel="stylesheet" href="\', escape=False)\nresponse.write(URL(\'static\', \'font-awesome-4.6.3/css/font-awesome.min.css\'))\nresponse.write(\'">\\n    \', escape=False)\nresponse.write(\'<script type="text/javascript"><!--\\n    // These variables are used by the web2py_ajax_init function in web2py_ajax.js (which is loaded below).\\n    var w2p_ajax_confirm_message = "\', escape=False)\nresponse.write(T(\'Are you sure you want to delete this object?\'))\nresponse.write(\'";\\n    var w2p_ajax_disable_with_message = "\', escape=False)\nresponse.write(T(\'Working...\'))\nresponse.write(\'";\\n    var w2p_ajax_date_format = "\', escape=False)\nresponse.write(T(\'%Y-%m-%d\'))\nresponse.write(\'";\\n    var w2p_ajax_datetime_format = "\', escape=False)\nresponse.write(T(\'%Y-%m-%d %H:%M:%S\'))\nresponse.write(\'";\\n    var ajax_error_500 = \\\'\', escape=False)\nresponse.write(T.M(\'An error occured, please [[reload %s]] the page\') % URL(args=request.args, vars=request.get_vars))\nresponse.write("\'\\n    //--></script>\\n", escape=False)\nresponse.files.insert(0,URL(\'static\',\'js/jquery.js\'))\nresponse.files.insert(1,URL(\'static\',\'css/calendar.css\'))\nresponse.files.insert(2,URL(\'static\',\'js/calendar.js\'))\nresponse.files.insert(3,URL(\'static\',\'js/web2py.js\'))\nresponse.include_meta()\nresponse.include_files()\nresponse.write(\'\\n\', escape=False)\nresponse.write(\'\\n    <style>\\n      .mySlides {display:none;}\\n    </style>\\n  </head>\\n  <body >\\n    \', escape=False)\nif response.flash:\n    response.write(\'\\n    <div class="w2p_flash">\\n      \', escape=False)\n    response.write(response.flash)\n    response.write(\'\\n    </div>\\n    \', escape=False)\n    pass\nresponse.write(\'\\n    <header class="teal padded stupid-example">\\n<div class="container max900">\\n  <div class="fill middle">\\n    <label class="ham fa fa-bars" for="left-menu"></label>\\n    <div class="burger accordion">\\n      <input type="checkbox" id="menu">\\n      <strong>\', escape=False)\nresponse.write(MENU(response.menu,_class=\'menu\'))\nresponse.write(\'</strong>\\n      <ul class="menu right">\\n          <li>\\n            \', escape=False)\nresponse.write(auth.navbar(mode=\'dropdown\'))\nresponse.write(\'\\n          </li>\\n      </ul>\\n    </div>\\n  </div>\\n</div>\\n<div class="container max900">\\n\\n</div>\\n    </header>\\n    <!-- <header class="teal padded">\\n      <div class="container middle max900">\\n        <div class="fill middle">\\n          <label class="ham padded fa fa-bars" for="menu"></label>\\n          <div class="burger accordion">\\n            <input type="checkbox" id="menu"/>\\n            \', escape=False)\nresponse.write(MENU(response.menu,_class=\'menu\'))\nresponse.write(\'\\n            <ul class="menu right">\\n              <li>\\n                \', escape=False)\nresponse.write(auth.navbar(mode=\'dropdown\'))\nresponse.write(\'\\n              </li>\\n            </ul>\\n          </div>\\n        </div>\\n      </div>\\n    </header> -->\\n    <main class="white">\\n      \', escape=False)\nresponse.write(\'\\n\\n\', escape=False)\nresponse.write(\'\\n\', escape=False)\nresponse.write(\'\\n\\n<div class="main_content">\\n\\n  <!-- Here goes your main HTML code. -->\\n  \', escape=False)\nif auth.user is not None:\n    response.write(\'\\n    \', escape=False)\n    if auth.user.email == "scholarship@admin.com":\n        response.write(\'\\n    <h1>Welcome to the administrator page for scholarships. </h1>\\n    <h3>To see a list of the applicants, click on the button below.</h3>\\n    <div class="button_list">\\n      <div class="buttons">\\n        <a class="btn rounded" href="\', escape=False)\n        response.write(URL(\'default\', \'see_users\'))\n        response.write(\'">\\n        View applicants\\n        </a>\\n      </div>\\n    </div>\\n    <h3>To establish a scholarship, click on the button below.</h3>\\n    <div class="button_list">\\n      <div class="buttons">\\n        <a class="btn rounded" href="\', escape=False)\n        response.write(URL(\'default\', \'add_scholarship\'))\n        response.write(\'">\\n        Establish scholarship\\n        </a>\\n      </div>\\n    </div>\\n\\n\\n    \', escape=False)\n    else:\n        response.write(\'\\n  <div class="add_btn">\\n    <a class="btn red rounded" href="\', escape=False)\n        response.write(URL(\'default\', \'add\'))\n        response.write(\'"><i class="fa fa-plus"></i> Add your Information</a>\\n  </div>\\n  <h2> Available Scholarships<br>Need to fix this to show scholarships. </h2>\\n  \', escape=False)\n        for cl in user_infos:\n            response.write(\'\\n    \', escape=False)\n            if cl.is_public is False:\n                response.write(\'\\n\\n      <div class="memo">\\n        <div class="memo_text">\\n          <div class="memo_title">Phone: \', escape=False)\n                response.write(cl.phone)\n                response.write(\' </div>\\n          <div class="memo_content">GPA: \', escape=False)\n                response.write(cl.gpa)\n                response.write(\'</div>\\n        </div>\\n        <div>\\n          <div class="button_list">\\n            <div class="buttons">\\n              <a class="btn rounded" href="\', escape=False)\n                response.write(URL(\'default\', \'edit\', args=[cl.id]))\n                response.write(\'">\\n                <i class="fa fa-edit fa-lg"></i>\\n              </a>\\n              <!-- <a class="btn rounded red" href="\', escape=False)\n                response.write(URL(\'default\', \'delete\', args=[cl.id], user_signature=True))\n                response.write(\'">\\n                <i class="fa fa-trash fa-lg"></i>\\n              </a>\\n              <a class="btn rounded red" href="\', escape=False)\n                response.write(URL(\'default\', \'toggle_public\', args=[cl.id], user_signature=True))\n                response.write(\'">\\n                <i class="fa fa-user"></i>\\n              </a> -->\\n\\n              </div>\\n          </div>\\n        </div>\\n      </div>\\n      \', escape=False)\n                pass\n            response.write(\'\\n    \', escape=False)\n            pass\n        response.write(\'\\n\\n  \', escape=False)\n        pass\n    response.write(\'\\n\\n  \', escape=False)\nelif auth.user is None:\n    response.write(\'\\n\\n   <h1 class="main_title">Welcome to Greek Orthodox Scholarships!</h1>\\n\\n    <p class="explanation">Sign Up to see which scholarships we offer!</p>\\n\\n    <div class="login_button">\\n        <a href="\', escape=False)\n    response.write(URL(\'default\', \'user\'))\n    response.write(\'" class="btn">Login</a>\\n    </div>\\n\\n\\n  \', escape=False)\n    pass\nresponse.write(\'\\n\\n</div>\\n\', escape=False)\nresponse.write(\'\\n      \', escape=False)\nif auth.user is None:\n    response.write(\'\\n        <div style="max-width:1435px">\\n          <img class="mySlides" alt="Philanthropy" src="../static/images/Penelope.jpg" style="width:100%"/>\\n          <img class="mySlides" alt="Education" src="../static/images/Scholarship.jpg" style="width:100%"/>\\n          <img class="mySlides" alt="Literacy" src="../static/images/BookClub-1.jpg" style="width:100%"/>\\n          <!-- <img class="mySlides" src="/images/facebook.png" style="width:100%">\\n          <img class="mySlides" src="/images/background.jpg" style="width:100%"> -->\\n        </div>\\n        <script>\\n          var myIndex = 0;\\n          carousel();\\n          function carousel() {\\n            var i;\\n            var x = document.getElementsByClassName("mySlides");\\n            for (i = 0; i < x.length; i++) {\\n              x[i].style.display = "none";\\n            }\\n            myIndex++;\\n            if (myIndex > x.length) {myIndex = 1}\\n            x[myIndex-1].style.display = "block";\\n            setTimeout(carousel, 4000); // Change image every 2 seconds\\n          }\\n        </script>\\n    </main>\\n\\n    <!-- <footer class="black">\\n      <div class="silver center padded social">\\n        <a class="fa fa-facebook" href="https://www.facebook.com/sharer/sharer.php?u={url}"></a>\\n        <a class="fa fa-twitter" href="https://twitter.com/home?status={url}"></a>\\n        <a class="fa fa-google" href="https://plus.google.com/share?url={url}"></a>\\n      </div>\\n      <div class="container padded max900">\\n        <div class="fill">\\n          Copyright @ 2016\\n        </div>\\n      </div>\\n    </footer> -->\\n  </body>\\n  <script src="\', escape=False)\n    response.write(URL(\'static\',\'js/marked.min.js\'))\n    response.write(\'"></script>\\n  <script src="\', escape=False)\n    response.write(URL(\'static\',\'js/vue.min.js\'))\n    response.write(\'"></script>\\n  \', escape=False)\n    response.write("\\n  <script>\\n    jQuery(\'.social a\').each(function(){var t=jQuery(this); t.attr(\'href\',t.attr(\'href\').replace(\'{url}\',encodeURIComponent(window.location.href)));});\\n  </script>\\n</html>\\n", escape=False)'
p7
sS'snapshot'
p8
(dp9
S'exception'
p10
(dp11
S'__module__'
p12
S"'gluon.rocket'"
p13
sS'__getslice__'
p14
S"<method-wrapper '__getslice__' of SocketTimeout object>"
p15
sS'__str__'
p16
S"<method-wrapper '__str__' of SocketTimeout object>"
p17
sS'__reduce__'
p18
S'<built-in method __reduce__ of SocketTimeout object>'
p19
sS'__dict__'
p20
S'{}'
p21
sS'__sizeof__'
p22
S'<built-in method __sizeof__ of SocketTimeout object>'
p23
sS'__weakref__'
p24
S'None'
p25
sS'message'
p26
S"'Socket timed out before request.'"
p27
sS'__init__'
p28
S"<method-wrapper '__init__' of SocketTimeout object>"
p29
sS'__setattr__'
p30
S"<method-wrapper '__setattr__' of SocketTimeout object>"
p31
sS'__reduce_ex__'
p32
S'<built-in method __reduce_ex__ of SocketTimeout object>'
p33
sS'__new__'
p34
S'<built-in method __new__ of type object>'
p35
sS'__format__'
p36
S'<built-in method __format__ of SocketTimeout object>'
p37
sS'__class__'
p38
S"<class 'gluon.rocket.SocketTimeout'>"
p39
sS'__doc__'
p40
S"'Exception for when a socket times out between requests.'"
p41
sS'__getitem__'
p42
S"<method-wrapper '__getitem__' of SocketTimeout object>"
p43
sS'__setstate__'
p44
S'<built-in method __setstate__ of SocketTimeout object>'
p45
sS'__getattribute__'
p46
S"<method-wrapper '__getattribute__' of SocketTimeout object>"
p47
sS'args'
p48
S"('Socket timed out before request.',)"
p49
sS'__subclasshook__'
p50
S'<built-in method __subclasshook__ of type object>'
p51
sS'__unicode__'
p52
S'<built-in method __unicode__ of SocketTimeout object>'
p53
sS'__delattr__'
p54
S"<method-wrapper '__delattr__' of SocketTimeout object>"
p55
sS'__repr__'
p56
S"<method-wrapper '__repr__' of SocketTimeout object>"
p57
sS'__hash__'
p58
S"<method-wrapper '__hash__' of SocketTimeout object>"
p59
ssS'evalue'
p60
S'Socket timed out before request.'
p61
sS'frames'
p62
(lp63
(dp64
S'file'
p65
S'/Users/dmitrypolyakov/PycharmProjects/web2py/gluon/rocket.py'
p66
sS'dump'
p67
(dp68
S'self'
p69
S'<WSGIWorker(Thread-9, started daemon 123145343533056)>'
p70
sS'conn'
p71
S'<gluon.rocket.Connection object>'
p72
sS'self.run_app'
p73
S'<bound method WSGIWorker.run_app of <WSGIWorker(Thread-9, started daemon 123145343533056)>>'
p74
ssS'lnum'
p75
I1319
sS'lines'
p76
(dp77
I1314
S'            # Enter connection serve loop'
p78
sI1315
S'            while True:'
p79
sI1316
S'                if __debug__:'
p80
sI1317
S"                    self.err_log.debug('Serving a request')"
p81
sI1318
S'                try:'
p82
sI1319
S'                    self.run_app(conn)'
p83
sI1320
S'                except:'
p84
sI1321
S'                    exc = sys.exc_info()'
p85
sI1322
S'                    handled = self._handleError(*exc)'
p86
sI1323
S'                    if handled:'
p87
ssS'call'
p88
S'(self=<WSGIWorker(Thread-9, started daemon 123145343533056)>)'
p89
sS'func'
p90
S'run'
p91
sa(dp92
g65
S'/Users/dmitrypolyakov/PycharmProjects/web2py/gluon/rocket.py'
p93
sg67
(dp94
S'self'
p95
S'<WSGIWorker(Thread-9, started daemon 123145343533056)>'
p96
sS'self.environ'
p97
S'{\'HTTP_ACCEPT\': \'text/html,application/xhtml+xml,application/xml;q=0.9,image/webp,image/apng,*/*;q=0.8\', \'HTTP_ACCEPT_ENCODING\': \'gzip, deflate, br\', \'HTTP_ACCEPT_LANGUAGE\': \'en-US,en;q=0.9\', \'HTTP_CACHE_CONTROL\': \'max-age=0\', \'HTTP_CONNECTION\': \'keep-alive\', \'HTTP_COOKIE\': \'session_id_admin=127.0.0.1-8371188f-a6e7-4bb2-98...pwebsite="6:bb14ec3f-72c9-421f-94e1-1ed581f184be"\', \'HTTP_HOST\': \'127.0.0.1:8000\', \'HTTP_REFERER\': \'http://127.0.0.1:8000/ScholarshipWebsite/default/index\', \'HTTP_UPGRADE_INSECURE_REQUESTS\': \'1\', \'HTTP_USER_AGENT\': \'Mozilla/5.0 (Macintosh; Intel Mac OS X 10_11_6) ...L, like Gecko) Chrome/66.0.3359.181 Safari/537.36\', ...}'
p98
sS'sock_file'
p99
S'<socket._fileobject object>'
p100
sS'environ'
p101
S'undefined'
p102
sS'self.build_environ'
p103
S'<bound method WSGIWorker.build_environ of <WSGIWorker(Thread-9, started daemon 123145343533056)>>'
p104
sS'conn'
p105
S'<gluon.rocket.Connection object>'
p106
ssg75
I1812
sg76
(dp107
I1807
S'        else:'
p108
sI1808
S'            sock_file = conn.makefile(BUF_SIZE)'
p109
sI1809
S''
sI1810
S'        try:'
p110
sI1811
S'            # Read the headers and build our WSGI environment'
p111
sI1812
S'            self.environ = environ = self.build_environ(sock_file, conn)'
p112
sI1813
S''
sI1814
S'            # Handle 100 Continue'
p113
sI1815
S"            if environ.get('HTTP_EXPECT', '') == '100-continue':"
p114
sI1816
S"                res = environ['SERVER_PROTOCOL'] + ' 100 Continue\\r\\n\\r\\n'"
p115
ssg88
S'(self=<WSGIWorker(Thread-9, started daemon 123145343533056)>, conn=<gluon.rocket.Connection object>)'
p116
sg90
S'run_app'
p117
sa(dp118
g65
S'/Users/dmitrypolyakov/PycharmProjects/web2py/gluon/rocket.py'
p119
sg67
(dp120
S'sock_file'
p121
S'<socket._fileobject object>'
p122
sS'self.read_request_line'
p123
S'<bound method WSGIWorker.read_request_line of <W...orker(Thread-9, started daemon 123145343533056)>>'
p124
sS'self'
p125
S'<WSGIWorker(Thread-9, started daemon 123145343533056)>'
p126
sS'request'
p127
g102
ssg75
I1632
sg76
(dp128
I1632
S'        request = self.read_request_line(sock_file)'
p129
sI1633
S''
sI1634
S'        # Copy the Base Environment'
p130
sI1635
S'        environ = self.base_environ.copy()'
p131
sI1636
S''
sI1627
S'                                      "wsgiorg.futures": executor.futures})'
p132
sI1628
S''
sI1629
S'    def build_environ(self, sock_file, conn):'
p133
sI1630
S'        """ Build the execution environment. """'
p134
sI1631
S'        # Grab the request line'
p135
ssg88
S'(self=<WSGIWorker(Thread-9, started daemon 123145343533056)>, sock_file=<socket._fileobject object>, conn=<gluon.rocket.Connection object>)'
p136
sg90
S'build_environ'
p137
sa(dp138
g65
S'/Users/dmitrypolyakov/PycharmProjects/web2py/gluon/rocket.py'
p139
sg67
(dp140
S'global SocketTimeout'
p141
S"<class 'gluon.rocket.SocketTimeout'>"
p142
ssg75
I1383
sg76
(dp143
I1378
S''
sI1379
S'                d = sock_file.readline()'
p144
sI1380
S'                if PY3K:'
p145
sI1381
S"                    d = d.decode('ISO-8859-1')"
p146
sI1382
S'        except socket.timeout:'
p147
sI1383
S"            raise SocketTimeout('Socket timed out before request.')"
p148
sI1384
S'        except TypeError:'
p149
sI1385
S'            raise SocketClosed('
p150
sI1386
S"                'SSL bug caused closure of socket.  See '"
p151
sI1387
S'                \'"https://groups.google.com/d/topic/web2py/P_Gw0JxWzCs".\')'
p152
ssg88
S'(self=<WSGIWorker(Thread-9, started daemon 123145343533056)>, sock_file=<socket._fileobject object>)'
p153
sg90
S'read_request_line'
p154
sasS'pyver'
p155
S'Python 2.7.13: /anaconda/bin/python (prefix: /anaconda)'
p156
sS'etype'
p157
S"<class 'gluon.rocket.SocketTimeout'>"
p158
sS'date'
p159
S'Thu Jun  7 22:10:28 2018'
p160
sS'locals'
p161
(dp162
S'sock_file'
p163
S'<socket._fileobject object>'
p164
sS'self'
p165
S'<WSGIWorker(Thread-9, started daemon 123145343533056)>'
p166
sssS'traceback'
p167
S'Traceback (most recent call last):\n  File "/Users/dmitrypolyakov/PycharmProjects/web2py/gluon/rocket.py", line 1319, in run\n    self.run_app(conn)\n  File "/Users/dmitrypolyakov/PycharmProjects/web2py/gluon/rocket.py", line 1812, in run_app\n    self.environ = environ = self.build_environ(sock_file, conn)\n  File "/Users/dmitrypolyakov/PycharmProjects/web2py/gluon/rocket.py", line 1632, in build_environ\n    request = self.read_request_line(sock_file)\n  File "/Users/dmitrypolyakov/PycharmProjects/web2py/gluon/rocket.py", line 1383, in read_request_line\n    raise SocketTimeout(\'Socket timed out before request.\')\nSocketTimeout: Socket timed out before request.\n'
p168
s.