(dp1
S'output'
p2
S'missing "pass" in view'
p3
sS'layer'
p4
S'ParserContainer'
p5
sS'code'
p6
S'response.write(\'<html>\\r\\n  <head>\\r\\n    <meta charset="utf-8">\\r\\n    <meta http-equiv="X-UA-Compatible" content="IE=edge,chrome=1">\\r\\n    <meta name="viewport" content="width=device-width, initial-scale=1.0" />\\r\\n    <meta name="apple-mobile-web-app-capable" content="yes" />\\r\\n    <link href="\', escape=False)\nresponse.write(URL(\'static\',\'css/stupid.css\'))\nresponse.write(\'" rel="stylesheet" type="text/css"/>\\r\\n    <link href="\', escape=False)\nresponse.write(URL(\'static\',\'css/custom.css\'))\nresponse.write(\'" rel="stylesheet" type="text/css"/>\\r\\n    <link href="\', escape=False)\nresponse.write(URL(\'static\',\'css/calendar.css\'))\nresponse.write(\'" rel="stylesheet" type="text/css"/>\\r\\n    <link href="\', escape=False)\nresponse.write(URL(\'static\',\'css/web2py.css\'))\nresponse.write(\'" rel="stylesheet" type="text/css"/>\\r\\n    <link href="\', escape=False)\nresponse.write(URL(\'static\',\'css/myapp.css\'))\nresponse.write(\'" rel="stylesheet" type="text/css"/>\\r\\n    <link rel="stylesheet" href="\', escape=False)\nresponse.write(URL(\'static\', \'font-awesome-4.6.3/css/font-awesome.min.css\'))\nresponse.write(\'">\\r\\n    \', escape=False)\nresponse.write(\'<script type="text/javascript"><!--\\r\\n    // These variables are used by the web2py_ajax_init function in web2py_ajax.js (which is loaded below).\\r\\n    var w2p_ajax_confirm_message = "\', escape=False)\nresponse.write(T(\'Are you sure you want to delete this object?\'))\nresponse.write(\'";\\r\\n    var w2p_ajax_disable_with_message = "\', escape=False)\nresponse.write(T(\'Working...\'))\nresponse.write(\'";\\r\\n    var w2p_ajax_date_format = "\', escape=False)\nresponse.write(T(\'%Y-%m-%d\'))\nresponse.write(\'";\\r\\n    var w2p_ajax_datetime_format = "\', escape=False)\nresponse.write(T(\'%Y-%m-%d %H:%M:%S\'))\nresponse.write(\'";\\r\\n    var ajax_error_500 = \\\'\', escape=False)\nresponse.write(T.M(\'An error occured, please [[reload %s]] the page\') % URL(args=request.args, vars=request.get_vars))\nresponse.write("\'\\r\\n    //--></script>\\r\\n", escape=False)\nresponse.files.insert(0,URL(\'static\',\'js/jquery.js\'))\nresponse.files.insert(1,URL(\'static\',\'css/calendar.css\'))\nresponse.files.insert(2,URL(\'static\',\'js/calendar.js\'))\nresponse.files.insert(3,URL(\'static\',\'js/web2py.js\'))\nresponse.include_meta()\nresponse.include_files()\nresponse.write(\'\\r\\n\', escape=False)\nresponse.write(\'\\r\\n  </head>\\r\\n  <body class="black">\\r\\n    \', escape=False)\nif response.flash:\n    response.write(\'\\r\\n    <div class="w2p_flash">\\r\\n      \', escape=False)\n    response.write(response.flash)\n    response.write(\'\\r\\n    </div>\\r\\n    \', escape=False)\n    pass\nresponse.write(\'\\r\\n    <header class="black padded">\\r\\n      <div class="container middle max900">\\r\\n        <div class="fill middle">\\r\\n          <label class="ham padded fa fa-bars" for="menu"></label>\\r\\n          <div class="burger accordion">\\r\\n            <input type="checkbox" id="menu"/>\\r\\n            \', escape=False)\nresponse.write(MENU(response.menu,_class=\'menu\'))\nresponse.write(\'\\r\\n            <ul class="menu right">\\r\\n              <li>\\r\\n                \', escape=False)\nresponse.write(auth.navbar(mode=\'dropdown\'))\nresponse.write(\'\\r\\n              </li>\\r\\n            </ul>\\r\\n          </div>\\r\\n        </div>\\r\\n      </div>\\r\\n    </header>\\r\\n    <main class="white">\\r\\n      \', escape=False)\nresponse.write(\' \', escape=False)\nresponse.write(\' \', escape=False)\nresponse.write(\'\\r\\n\\r\\n<div class="main_content">\\r\\n\\r\\n  <!-- Here goes your main HTML code. -->\\r\\n\\r\\n\\r\\n  \', escape=False)\nif auth.user is not None:\n    response.write(\' \', escape=False)\n    if auth.user.email == "scholarship@admin.com":\n        response.write(\'\\r\\n  <h1>This is the admin site </h1>\\r\\n  <!-- <h2>The users: </h2>\', escape=False)\n        for user in users:\n            response.write(\'\\r\\n  <p>user: \', escape=False)\n            response.write(user.)\n            response.write(\' \', escape=False)\n        else:\n            response.write(\' -->\\r\\n\\r\\n\\r\\n  <div class="add_btn">\\r\\n    <a class="btn red rounded" href="\', escape=False)\n            response.write(URL(\'default\', \'add\'))\n            response.write(\'"><i class="fa fa-plus"></i> Add</a>\\r\\n  </div>\\r\\n  <h2> Your Private Memos </h2> \', escape=False)\n            for cl in checklists:\n                response.write(\' \', escape=False)\n                if cl.is_public is False:\n                    response.write(\'\\r\\n\\r\\n  <div class="memo">\\r\\n    <div class="memo_text">\\r\\n      <div class="memo_title">\', escape=False)\n                    response.write(cl.title)\n                    response.write(\'</div>\\r\\n      <div class="memo_content">\', escape=False)\n                    response.write(cl.memo)\n                    response.write(\'</div>\\r\\n    </div>\\r\\n    <div>\\r\\n      <div class="button_list">\\r\\n        <div class="buttons">\\r\\n          <a class="btn rounded" href="\', escape=False)\n                    response.write(URL(\'default\', \'edit\', args=[cl.id]))\n                    response.write(\'">\\r\\n                <i class="fa fa-edit fa-lg"></i>\\r\\n              </a>\\r\\n          <a class="btn rounded red" href="\', escape=False)\n                    response.write(URL(\'default\', \'delete\', args=[cl.id], user_signature=True))\n                    response.write(\'">\\r\\n                <i class="fa fa-trash fa-lg"></i>\\r\\n              </a>\\r\\n          <a class="btn rounded red" href="\', escape=False)\n                    response.write(URL(\'default\', \'toggle_public\', args=[cl.id], user_signature=True))\n                    response.write(\'">\\r\\n                <i class="fa fa-user"></i>\\r\\n              </a>\\r\\n        </div>\\r\\n      </div>\\r\\n    </div>\\r\\n  </div>\\r\\n  \', escape=False)\n                    pass\n                response.write(\' \', escape=False)\n                pass\n            response.write(\' \', escape=False)\n            pass\n        response.write(\' \', escape=False)\n        if not checklists:\n            response.write(\'\\r\\n\\r\\n  <p>No scholarships available.</p>\\r\\n\\r\\n  \', escape=False)\n            pass\n        response.write(\' \', escape=False)\n    elif auth.user is None:\n        response.write(\'\\r\\n\\r\\n  <h1 class="main_title">Welcome!</h1>\\r\\n\\r\\n  <p class="explanation">This site will help you organize your life by storing your checklists. Please log in to use it.</p>\\r\\n\\r\\n  <div class="login_button">\\r\\n    <a href="\', escape=False)\n        response.write(URL(\'default\', \'user\'))\n        response.write(\'" class="btn">Login</a>\\r\\n  </div>\\r\\n  <h2>Public Memos </h2> \', escape=False)\n        pass\n    response.write(\'\\r\\n\\r\\n</div>\', escape=False)\n    response.write(\'\\r\\n    </main>\\r\\n    <footer class="black">\\r\\n      <div class="silver center padded social">\\r\\n        <a class="fa fa-facebook" href="https://www.facebook.com/sharer/sharer.php?u={url}"></a>\\r\\n        <a class="fa fa-twitter" href="https://twitter.com/home?status={url}"></a>\\r\\n        <a class="fa fa-google" href="https://plus.google.com/share?url={url}"></a>\\r\\n      </div>\\r\\n      <div class="container padded max900">\\r\\n        <div class="fill">\\r\\n          Copyright @ 2016\\r\\n        </div>\\r\\n      </div>\\r\\n    </footer>\\r\\n  </body>\\r\\n  <script src="\', escape=False)\n    response.write(URL(\'static\',\'js/marked.min.js\'))\n    response.write(\'"></script>\\r\\n  <script src="\', escape=False)\n    response.write(URL(\'static\',\'js/vue.min.js\'))\n    response.write(\'"></script>\\r\\n  \', escape=False)\n    response.write("\\r\\n  <script>\\r\\n    jQuery(\'.social a\').each(function(){var t=jQuery(this); t.attr(\'href\',t.attr(\'href\').replace(\'{url}\',encodeURIComponent(window.location.href)));});\\r\\n  </script>\\r\\n</html>\\r\\n", escape=False)'
p7
sS'snapshot'
p8
(dp9
sS'traceback'
p10
S'None\n'
p11
s.